target datalayout = "e-m:e-p270:32:32-p271:32:32-p272:64:64-i64:64-i128:128-f80:128-n8:16:32:64-S128"
target triple = "x86_64-pc-linux-gnu"

%"class.folly::SharedMutexImpl" = type { %"struct.std::atomic" }
%"struct.std::atomic" = type { %"struct.std::__atomic_base" }
%"struct.std::__atomic_base" = type { i32 }
%"class.folly::SharedMutexImpl.0" = type { %"struct.std::atomic" }

$_ZN5folly6detail9futexWakeISt6atomicIjEEEiPKT_ij = comdat any

$_ZNSt13__atomic_baseIjE9fetch_andEjSt12memory_order = comdat any

$_ZNSt14numeric_limitsIiE3maxEv = comdat any

@llvm.compiler.used = appending global [2 x ptr] [ptr @_ZN5folly15SharedMutexImplILb1EvSt6atomicNS_24SharedMutexPolicyDefaultEE25wakeRegisteredWaitersImplERjj, ptr @_ZN5folly15SharedMutexImplILb0EvSt6atomicNS_24SharedMutexPolicyDefaultEE25wakeRegisteredWaitersImplERjj], section "llvm.metadata"

; Function Attrs: mustprogress uwtable
define noundef ptr @_ZN5folly23DeadlockDetectorFactory8instanceEv() #0 align 2 {
  %1 = alloca ptr, align 8
  %2 = icmp ne ptr @_ZN5folly38get_deadlock_detector_factory_instanceEv, null
  br i1 %2, label %3, label %5

3:                                                ; preds = %0
  %4 = call noundef ptr @_ZN5folly38get_deadlock_detector_factory_instanceEv()
  store ptr %4, ptr %1, align 8
  br label %6

5:                                                ; preds = %0
  store ptr null, ptr %1, align 8
  br label %6

6:                                                ; preds = %5, %3
  %7 = load ptr, ptr %1, align 8
  ret ptr %7
}

declare extern_weak noundef ptr @_ZN5folly38get_deadlock_detector_factory_instanceEv() #1

; Function Attrs: mustprogress uwtable
define available_externally void @_ZN5folly15SharedMutexImplILb1EvSt6atomicNS_24SharedMutexPolicyDefaultEE25wakeRegisteredWaitersImplERjj(ptr noundef nonnull align 4 dereferenceable(4) %0, ptr noundef nonnull align 4 dereferenceable(4) %1, i32 noundef %2) #0 align 2 {
  %4 = alloca ptr, align 8
  %5 = alloca ptr, align 8
  %6 = alloca i32, align 4
  %7 = alloca i32, align 4
  store ptr %0, ptr %4, align 8, !tbaa !7
  store ptr %1, ptr %5, align 8, !tbaa !12
  store i32 %2, ptr %6, align 4, !tbaa !14
  %8 = load ptr, ptr %4, align 8
  %9 = load i32, ptr %6, align 4, !tbaa !14
  %10 = and i32 %9, 12
  %11 = icmp eq i32 %10, 12
  br i1 %11, label %12, label %23

12:                                               ; preds = %3
  %13 = load ptr, ptr %5, align 8, !tbaa !12
  %14 = load i32, ptr %13, align 4, !tbaa !14
  %15 = load i32, ptr %6, align 4, !tbaa !14
  %16 = and i32 %14, %15
  %17 = icmp eq i32 %16, 12
  br i1 %17, label %18, label %23

18:                                               ; preds = %12
  %19 = getelementptr inbounds nuw %"class.folly::SharedMutexImpl", ptr %8, i32 0, i32 0
  %20 = call noundef i32 @_ZN5folly6detail9futexWakeISt6atomicIjEEEiPKT_ij(ptr noundef %19, i32 noundef 1, i32 noundef 12)
  %21 = icmp sgt i32 %20, 0
  br i1 %21, label %22, label %23

22:                                               ; preds = %18
  br label %46

23:                                               ; preds = %18, %12, %3
  %24 = load ptr, ptr %5, align 8, !tbaa !12
  %25 = load i32, ptr %24, align 4, !tbaa !14
  %26 = load i32, ptr %6, align 4, !tbaa !14
  %27 = and i32 %25, %26
  %28 = icmp ne i32 %27, 0
  br i1 %28, label %29, label %46

29:                                               ; preds = %23
  call void @llvm.lifetime.start.p0(i64 4, ptr %7) #5
  %30 = getelementptr inbounds nuw %"class.folly::SharedMutexImpl", ptr %8, i32 0, i32 0
  %31 = load i32, ptr %6, align 4, !tbaa !14
  %32 = xor i32 %31, -1
  %33 = call noundef i32 @_ZNSt13__atomic_baseIjE9fetch_andEjSt12memory_order(ptr noundef nonnull align 4 dereferenceable(4) %30, i32 noundef %32, i32 noundef 5) #5
  store i32 %33, ptr %7, align 4, !tbaa !14
  %34 = load i32, ptr %7, align 4, !tbaa !14
  %35 = load i32, ptr %6, align 4, !tbaa !14
  %36 = and i32 %34, %35
  %37 = icmp ne i32 %36, 0
  br i1 %37, label %38, label %40

38:                                               ; preds = %29
  %39 = load i32, ptr %6, align 4, !tbaa !14
  call void @_ZN5folly15SharedMutexImplILb1EvSt6atomicNS_24SharedMutexPolicyDefaultEE12futexWakeAllEj(ptr noundef nonnull align 4 dereferenceable(4) %8, i32 noundef %39)
  br label %40

40:                                               ; preds = %38, %29
  %41 = load i32, ptr %7, align 4, !tbaa !14
  %42 = load i32, ptr %6, align 4, !tbaa !14
  %43 = xor i32 %42, -1
  %44 = and i32 %41, %43
  %45 = load ptr, ptr %5, align 8, !tbaa !12
  store i32 %44, ptr %45, align 4, !tbaa !14
  call void @llvm.lifetime.end.p0(i64 4, ptr %7) #5
  br label %46

46:                                               ; preds = %22, %40, %23
  ret void
}

; Function Attrs: mustprogress uwtable
define linkonce_odr noundef i32 @_ZN5folly6detail9futexWakeISt6atomicIjEEEiPKT_ij(ptr noundef %0, i32 noundef %1, i32 noundef %2) #0 comdat {
  %4 = alloca ptr, align 8
  %5 = alloca i32, align 4
  %6 = alloca i32, align 4
  store ptr %0, ptr %4, align 8, !tbaa !16
  store i32 %1, ptr %5, align 4, !tbaa !14
  store i32 %2, ptr %6, align 4, !tbaa !14
  %7 = load ptr, ptr %4, align 8, !tbaa !16
  %8 = load i32, ptr %5, align 4, !tbaa !14
  %9 = load i32, ptr %6, align 4, !tbaa !14
  %10 = call noundef i32 @_ZN5folly6detail13futexWakeImplEPKSt6atomicIjEij(ptr noundef %7, i32 noundef %8, i32 noundef %9)
  ret i32 %10
}

; Function Attrs: nocallback nofree nosync nounwind willreturn memory(argmem: readwrite)
declare void @llvm.lifetime.start.p0(i64 immarg, ptr captures(none)) #2

; Function Attrs: alwaysinline mustprogress nounwind uwtable
define linkonce_odr noundef i32 @_ZNSt13__atomic_baseIjE9fetch_andEjSt12memory_order(ptr noundef nonnull align 4 dereferenceable(4) %0, i32 noundef %1, i32 noundef %2) #3 comdat align 2 {
  %4 = alloca ptr, align 8
  %5 = alloca i32, align 4
  %6 = alloca i32, align 4
  %7 = alloca i32, align 4
  %8 = alloca i32, align 4
  store ptr %0, ptr %4, align 8, !tbaa !18
  store i32 %1, ptr %5, align 4, !tbaa !14
  store i32 %2, ptr %6, align 4, !tbaa !20
  %9 = load ptr, ptr %4, align 8
  %10 = getelementptr inbounds nuw %"struct.std::__atomic_base", ptr %9, i32 0, i32 0
  %11 = load i32, ptr %6, align 4, !tbaa !20
  %12 = load i32, ptr %5, align 4, !tbaa !14
  store i32 %12, ptr %7, align 4, !tbaa !14
  switch i32 %11, label %13 [
    i32 1, label %16
    i32 2, label %16
    i32 3, label %19
    i32 4, label %22
    i32 5, label %25
  ]

13:                                               ; preds = %3
  %14 = load i32, ptr %7, align 4
  %15 = atomicrmw and ptr %10, i32 %14 monotonic, align 4
  store i32 %15, ptr %8, align 4
  br label %28

16:                                               ; preds = %3, %3
  %17 = load i32, ptr %7, align 4
  %18 = atomicrmw and ptr %10, i32 %17 acquire, align 4
  store i32 %18, ptr %8, align 4
  br label %28

19:                                               ; preds = %3
  %20 = load i32, ptr %7, align 4
  %21 = atomicrmw and ptr %10, i32 %20 release, align 4
  store i32 %21, ptr %8, align 4
  br label %28

22:                                               ; preds = %3
  %23 = load i32, ptr %7, align 4
  %24 = atomicrmw and ptr %10, i32 %23 acq_rel, align 4
  store i32 %24, ptr %8, align 4
  br label %28

25:                                               ; preds = %3
  %26 = load i32, ptr %7, align 4
  %27 = atomicrmw and ptr %10, i32 %26 seq_cst, align 4
  store i32 %27, ptr %8, align 4
  br label %28

28:                                               ; preds = %25, %22, %19, %16, %13
  %29 = load i32, ptr %8, align 4, !tbaa !14
  ret i32 %29
}

; Function Attrs: mustprogress uwtable
define available_externally void @_ZN5folly15SharedMutexImplILb1EvSt6atomicNS_24SharedMutexPolicyDefaultEE12futexWakeAllEj(ptr noundef nonnull align 4 dereferenceable(4) %0, i32 noundef %1) #0 align 2 {
  %3 = alloca ptr, align 8
  %4 = alloca i32, align 4
  store ptr %0, ptr %3, align 8, !tbaa !7
  store i32 %1, ptr %4, align 4, !tbaa !14
  %5 = load ptr, ptr %3, align 8
  %6 = getelementptr inbounds nuw %"class.folly::SharedMutexImpl", ptr %5, i32 0, i32 0
  %7 = call noundef i32 @_ZNSt14numeric_limitsIiE3maxEv() #5
  %8 = load i32, ptr %4, align 4, !tbaa !14
  %9 = call noundef i32 @_ZN5folly6detail9futexWakeISt6atomicIjEEEiPKT_ij(ptr noundef %6, i32 noundef %7, i32 noundef %8)
  ret void
}

; Function Attrs: nocallback nofree nosync nounwind willreturn memory(argmem: readwrite)
declare void @llvm.lifetime.end.p0(i64 immarg, ptr captures(none)) #2

declare noundef i32 @_ZN5folly6detail13futexWakeImplEPKSt6atomicIjEij(ptr noundef, i32 noundef, i32 noundef) #1

; Function Attrs: mustprogress nounwind uwtable
define linkonce_odr noundef i32 @_ZNSt14numeric_limitsIiE3maxEv() #4 comdat align 2 {
  ret i32 2147483647
}

; Function Attrs: mustprogress uwtable
define available_externally void @_ZN5folly15SharedMutexImplILb0EvSt6atomicNS_24SharedMutexPolicyDefaultEE25wakeRegisteredWaitersImplERjj(ptr noundef nonnull align 4 dereferenceable(4) %0, ptr noundef nonnull align 4 dereferenceable(4) %1, i32 noundef %2) #0 align 2 {
  %4 = alloca ptr, align 8
  %5 = alloca ptr, align 8
  %6 = alloca i32, align 4
  %7 = alloca i32, align 4
  store ptr %0, ptr %4, align 8, !tbaa !22
  store ptr %1, ptr %5, align 8, !tbaa !12
  store i32 %2, ptr %6, align 4, !tbaa !14
  %8 = load ptr, ptr %4, align 8
  %9 = load i32, ptr %6, align 4, !tbaa !14
  %10 = and i32 %9, 12
  %11 = icmp eq i32 %10, 12
  br i1 %11, label %12, label %23

12:                                               ; preds = %3
  %13 = load ptr, ptr %5, align 8, !tbaa !12
  %14 = load i32, ptr %13, align 4, !tbaa !14
  %15 = load i32, ptr %6, align 4, !tbaa !14
  %16 = and i32 %14, %15
  %17 = icmp eq i32 %16, 12
  br i1 %17, label %18, label %23

18:                                               ; preds = %12
  %19 = getelementptr inbounds nuw %"class.folly::SharedMutexImpl.0", ptr %8, i32 0, i32 0
  %20 = call noundef i32 @_ZN5folly6detail9futexWakeISt6atomicIjEEEiPKT_ij(ptr noundef %19, i32 noundef 1, i32 noundef 12)
  %21 = icmp sgt i32 %20, 0
  br i1 %21, label %22, label %23

22:                                               ; preds = %18
  br label %46

23:                                               ; preds = %18, %12, %3
  %24 = load ptr, ptr %5, align 8, !tbaa !12
  %25 = load i32, ptr %24, align 4, !tbaa !14
  %26 = load i32, ptr %6, align 4, !tbaa !14
  %27 = and i32 %25, %26
  %28 = icmp ne i32 %27, 0
  br i1 %28, label %29, label %46

29:                                               ; preds = %23
  call void @llvm.lifetime.start.p0(i64 4, ptr %7) #5
  %30 = getelementptr inbounds nuw %"class.folly::SharedMutexImpl.0", ptr %8, i32 0, i32 0
  %31 = load i32, ptr %6, align 4, !tbaa !14
  %32 = xor i32 %31, -1
  %33 = call noundef i32 @_ZNSt13__atomic_baseIjE9fetch_andEjSt12memory_order(ptr noundef nonnull align 4 dereferenceable(4) %30, i32 noundef %32, i32 noundef 5) #5
  store i32 %33, ptr %7, align 4, !tbaa !14
  %34 = load i32, ptr %7, align 4, !tbaa !14
  %35 = load i32, ptr %6, align 4, !tbaa !14
  %36 = and i32 %34, %35
  %37 = icmp ne i32 %36, 0
  br i1 %37, label %38, label %40

38:                                               ; preds = %29
  %39 = load i32, ptr %6, align 4, !tbaa !14
  call void @_ZN5folly15SharedMutexImplILb0EvSt6atomicNS_24SharedMutexPolicyDefaultEE12futexWakeAllEj(ptr noundef nonnull align 4 dereferenceable(4) %8, i32 noundef %39)
  br label %40

40:                                               ; preds = %38, %29
  %41 = load i32, ptr %7, align 4, !tbaa !14
  %42 = load i32, ptr %6, align 4, !tbaa !14
  %43 = xor i32 %42, -1
  %44 = and i32 %41, %43
  %45 = load ptr, ptr %5, align 8, !tbaa !12
  store i32 %44, ptr %45, align 4, !tbaa !14
  call void @llvm.lifetime.end.p0(i64 4, ptr %7) #5
  br label %46

46:                                               ; preds = %22, %40, %23
  ret void
}

; Function Attrs: mustprogress uwtable
define available_externally void @_ZN5folly15SharedMutexImplILb0EvSt6atomicNS_24SharedMutexPolicyDefaultEE12futexWakeAllEj(ptr noundef nonnull align 4 dereferenceable(4) %0, i32 noundef %1) #0 align 2 {
  %3 = alloca ptr, align 8
  %4 = alloca i32, align 4
  store ptr %0, ptr %3, align 8, !tbaa !22
  store i32 %1, ptr %4, align 4, !tbaa !14
  %5 = load ptr, ptr %3, align 8
  %6 = getelementptr inbounds nuw %"class.folly::SharedMutexImpl.0", ptr %5, i32 0, i32 0
  %7 = call noundef i32 @_ZNSt14numeric_limitsIiE3maxEv() #5
  %8 = load i32, ptr %4, align 4, !tbaa !14
  %9 = call noundef i32 @_ZN5folly6detail9futexWakeISt6atomicIjEEEiPKT_ij(ptr noundef %6, i32 noundef %7, i32 noundef %8)
  ret void
}


!llvm.module.flags = !{!0, !1, !2, !3, !4, !5, !6}

!0 = !{i32 7, !"Dwarf Version", i32 5}
!1 = !{i32 2, !"Debug Info Version", i32 3}
!2 = !{i32 1, !"wchar_size", i32 4}
!3 = !{i32 7, !"openmp", i32 51}
!4 = !{i32 8, !"PIC Level", i32 2}
!5 = !{i32 7, !"uwtable", i32 2}
!6 = !{i32 7, !"debug-info-assignment-tracking", i1 true}
!7 = !{!8, !8, i64 0}
!8 = !{!"p1 _ZTSN5folly15SharedMutexImplILb1EvSt6atomicNS_24SharedMutexPolicyDefaultEEE", !9, i64 0}
!9 = !{!"any pointer", !10, i64 0}
!10 = !{!"omnipotent char", !11, i64 0}
!11 = !{!"Simple C++ TBAA"}
!12 = !{!13, !13, i64 0}
!13 = !{!"p1 int", !9, i64 0}
!14 = !{!15, !15, i64 0}
!15 = !{!"int", !10, i64 0}
!16 = !{!17, !17, i64 0}
!17 = !{!"p1 _ZTSSt6atomicIjE", !9, i64 0}
!18 = !{!19, !19, i64 0}
!19 = !{!"p1 _ZTSSt13__atomic_baseIjE", !9, i64 0}
!20 = !{!21, !21, i64 0}
!21 = !{!"_ZTSSt12memory_order", !10, i64 0}
!22 = !{!23, !23, i64 0}
!23 = !{!"p1 _ZTSN5folly15SharedMutexImplILb0EvSt6atomicNS_24SharedMutexPolicyDefaultEEE", !9, i64 0}
