; ModuleID = 'bench/folly/original/DeadlockDetector.ll'
source_filename = "bench/folly/original/DeadlockDetector.ll"
target datalayout = "e-m:e-p270:32:32-p271:32:32-p272:64:64-i64:64-i128:128-f80:128-n8:16:32:64-S128"
target triple = "x86_64-pc-linux-gnu"

@llvm.compiler.used = appending global [2 x ptr] [ptr @_ZN5folly15SharedMutexImplILb0EvSt6atomicNS_24SharedMutexPolicyDefaultEE25wakeRegisteredWaitersImplERjj, ptr @_ZN5folly15SharedMutexImplILb1EvSt6atomicNS_24SharedMutexPolicyDefaultEE25wakeRegisteredWaitersImplERjj], section "llvm.metadata"

; Function Attrs: mustprogress uwtable
define noundef ptr @_ZN5folly23DeadlockDetectorFactory8instanceEv() local_unnamed_addr #0 align 2 {
  %.not = icmp eq ptr @_ZN5folly38get_deadlock_detector_factory_instanceEv, null
  br i1 %.not, label %3, label %1

1:                                                ; preds = %0
  %2 = tail call noundef ptr @_ZN5folly38get_deadlock_detector_factory_instanceEv()
  br label %3

3:                                                ; preds = %0, %1
  %.0 = phi ptr [ %2, %1 ], [ null, %0 ]
  ret ptr %.0
}

declare extern_weak noundef ptr @_ZN5folly38get_deadlock_detector_factory_instanceEv() #1

; Function Attrs: mustprogress uwtable
declare void @_ZN5folly15SharedMutexImplILb1EvSt6atomicNS_24SharedMutexPolicyDefaultEE25wakeRegisteredWaitersImplERjj(ptr noundef nonnull align 4 dereferenceable(4), ptr noundef nonnull align 4 dereferenceable(4), i32 noundef) #0 align 2

; Function Attrs: mustprogress uwtable
declare void @_ZN5folly15SharedMutexImplILb0EvSt6atomicNS_24SharedMutexPolicyDefaultEE25wakeRegisteredWaitersImplERjj(ptr noundef nonnull align 4 dereferenceable(4), ptr noundef nonnull align 4 dereferenceable(4), i32 noundef) #0 align 2


!llvm.module.flags = !{!0, !1, !2, !3, !4, !5, !6}

!0 = !{i32 7, !"Dwarf Version", i32 5}
!1 = !{i32 2, !"Debug Info Version", i32 3}
!2 = !{i32 1, !"wchar_size", i32 4}
!3 = !{i32 7, !"openmp", i32 51}
!4 = !{i32 8, !"PIC Level", i32 2}
!5 = !{i32 7, !"uwtable", i32 2}
!6 = !{i32 7, !"debug-info-assignment-tracking", i1 true}
